; Function Attrs: nounwind uwtable
define noundef zeroext i8 @l_Array_isEqvAux___at_Lean_Lsp_beqCompletionItem____x40_Lean_Data_Lsp_LanguageFeatures___hyg_2497____spec__7(ptr noundef readnone captures(none) %0, ptr noundef readnone captures(none) %1, ptr noundef readnone captures(none) %2, ptr noundef readnone captures(none) %3, ptr noundef readnone captures(none) %4, ptr noundef %5, ptr noundef readnone captures(none) %6) local_unnamed_addr #0 {
  br label %lean_dec.exit11

lean_dec.exit11:                                  ; preds = %lean_dec.exit11.backedge, %7
  %.010 = phi ptr [ %5, %7 ], [ %.010.be, %lean_dec.exit11.backedge ]
  %8 = ptrtoint ptr %.010 to i64
  %9 = and i64 %8, 1
  %.not = icmp eq i64 %9, 0
  br i1 %.not, label %lean_nat_eq.exit.thread, label %lean_nat_eq.exit, !prof !18

lean_nat_eq.exit:                                 ; preds = %lean_dec.exit11
  %.not23 = icmp eq ptr %.010, inttoptr (i64 1 to ptr)
  br i1 %.not23, label %.loopexit, label %11

lean_nat_eq.exit.thread:                          ; preds = %lean_dec.exit11
  %10 = tail call zeroext i1 @lean_nat_big_eq(ptr noundef %.010, ptr noundef nonnull inttoptr (i64 1 to ptr)) #9
  br i1 %10, label %.thread18, label %.thread

11:                                               ; preds = %lean_nat_eq.exit
  %12 = icmp ult ptr %.010, inttoptr (i64 2 to ptr)
  br i1 %12, label %lean_dec.exit11.backedge, label %13

13:                                               ; preds = %11
  %14 = add i64 %8, -2
  %15 = inttoptr i64 %14 to ptr
  br label %lean_dec.exit11.backedge

lean_dec.exit11.backedge:                         ; preds = %13, %11, %19, %21, %22
  %.010.be = phi ptr [ %16, %19 ], [ %16, %21 ], [ %16, %22 ], [ inttoptr (i64 1 to ptr), %11 ], [ %15, %13 ]
  br label %lean_dec.exit11

.thread:                                          ; preds = %lean_nat_eq.exit.thread
  %16 = tail call ptr @lean_nat_big_sub(ptr noundef %.010, ptr noundef nonnull inttoptr (i64 3 to ptr)) #9
  %17 = load i32, ptr %.010, align 4, !tbaa !8
  %18 = icmp sgt i32 %17, 1
  br i1 %18, label %19, label %21, !prof !11

19:                                               ; preds = %.thread
  %20 = add nsw i32 %17, -1
  store i32 %20, ptr %.010, align 4, !tbaa !8
  br label %lean_dec.exit11.backedge

21:                                               ; preds = %.thread
  %.not.i = icmp eq i32 %17, 0
  br i1 %.not.i, label %lean_dec.exit11.backedge, label %22

22:                                               ; preds = %21
  tail call void @lean_dec_ref_cold(ptr noundef nonnull %.010) #9
  br label %lean_dec.exit11.backedge

.thread18:                                        ; preds = %lean_nat_eq.exit.thread
  %23 = load i32, ptr %.010, align 4, !tbaa !8
  %24 = icmp sgt i32 %23, 1
  br i1 %24, label %25, label %27, !prof !11

25:                                               ; preds = %.thread18
  %26 = add nsw i32 %23, -1
  store i32 %26, ptr %.010, align 4, !tbaa !8
  br label %.loopexit

27:                                               ; preds = %.thread18
  %.not.i12 = icmp eq i32 %23, 0
  br i1 %.not.i12, label %.loopexit, label %28

28:                                               ; preds = %27
  tail call void @lean_dec_ref_cold(ptr noundef nonnull %.010) #9
  br label %.loopexit

.loopexit:                                        ; preds = %lean_nat_eq.exit, %28, %27, %25
  ret i8 1
}